; ModuleID = '19/2599.c'
source_filename = "19/2599.c"
target datalayout = "e-m:e-p270:32:32-p271:32:32-p272:64:64-i64:64-f80:128-n8:16:32:64-S128"
target triple = "x86_64-pc-linux-gnu"

@.str = private unnamed_addr constant [3 x i8] c"%s\00", align 1
@.str.1 = private unnamed_addr constant [4 x i8] c" %s\00", align 1

; Function Attrs: noinline nounwind uwtable
define dso_local i32 @main() #0 {
  %1 = alloca i32, align 4
  %2 = alloca [300 x i8], align 16
  %3 = alloca [50 x [20 x i8]], align 16
  %4 = alloca [20 x i8], align 16
  %5 = alloca [20 x i8], align 16
  %6 = alloca [20 x i8], align 16
  %7 = alloca i32, align 4
  %8 = alloca i32, align 4
  %9 = alloca i32, align 4
  %10 = alloca i32, align 4
  %11 = alloca i32, align 4
  %12 = alloca i32, align 4
  %13 = alloca i32, align 4
  %14 = alloca i32, align 4
  store i32 0, i32* %1, align 4
  store i32 0, i32* %8, align 4
  store i32 0, i32* %9, align 4
  %15 = getelementptr inbounds [300 x i8], [300 x i8]* %2, i64 0, i64 0
  %16 = call i32 (i8*, ...) bitcast (i32 (...)* @gets to i32 (i8*, ...)*)(i8* %15)
  store i32 0, i32* %7, align 4
  br label %17

17:                                               ; preds = %61, %0
  %18 = load i32, i32* %7, align 4
  %19 = sext i32 %18 to i64
  %20 = getelementptr inbounds [300 x i8], [300 x i8]* %2, i64 0, i64 %19
  %21 = load i8, i8* %20, align 1
  %22 = sext i8 %21 to i32
  %23 = icmp ne i32 %22, 0
  br i1 %23, label %24, label %64

24:                                               ; preds = %17
  %25 = load i32, i32* %7, align 4
  %26 = sext i32 %25 to i64
  %27 = getelementptr inbounds [300 x i8], [300 x i8]* %2, i64 0, i64 %26
  %28 = load i8, i8* %27, align 1
  %29 = sext i8 %28 to i32
  %30 = icmp eq i32 %29, 32
  br i1 %30, label %38, label %31

31:                                               ; preds = %24
  %32 = load i32, i32* %7, align 4
  %33 = sext i32 %32 to i64
  %34 = getelementptr inbounds [300 x i8], [300 x i8]* %2, i64 0, i64 %33
  %35 = load i8, i8* %34, align 1
  %36 = sext i8 %35 to i32
  %37 = icmp eq i32 %36, 44
  br i1 %37, label %38, label %47

38:                                               ; preds = %31, %24
  %39 = load i32, i32* %8, align 4
  %40 = sext i32 %39 to i64
  %41 = getelementptr inbounds [50 x [20 x i8]], [50 x [20 x i8]]* %3, i64 0, i64 %40
  %42 = load i32, i32* %9, align 4
  %43 = sext i32 %42 to i64
  %44 = getelementptr inbounds [20 x i8], [20 x i8]* %41, i64 0, i64 %43
  store i8 0, i8* %44, align 1
  %45 = load i32, i32* %8, align 4
  %46 = add nsw i32 %45, 1
  store i32 %46, i32* %8, align 4
  store i32 0, i32* %9, align 4
  br label %60

47:                                               ; preds = %31
  %48 = load i32, i32* %7, align 4
  %49 = sext i32 %48 to i64
  %50 = getelementptr inbounds [300 x i8], [300 x i8]* %2, i64 0, i64 %49
  %51 = load i8, i8* %50, align 1
  %52 = load i32, i32* %8, align 4
  %53 = sext i32 %52 to i64
  %54 = getelementptr inbounds [50 x [20 x i8]], [50 x [20 x i8]]* %3, i64 0, i64 %53
  %55 = load i32, i32* %9, align 4
  %56 = sext i32 %55 to i64
  %57 = getelementptr inbounds [20 x i8], [20 x i8]* %54, i64 0, i64 %56
  store i8 %51, i8* %57, align 1
  %58 = load i32, i32* %9, align 4
  %59 = add nsw i32 %58, 1
  store i32 %59, i32* %9, align 4
  br label %60

60:                                               ; preds = %47, %38
  br label %61

61:                                               ; preds = %60
  %62 = load i32, i32* %7, align 4
  %63 = add nsw i32 %62, 1
  store i32 %63, i32* %7, align 4
  br label %17

64:                                               ; preds = %17
  %65 = load i32, i32* %8, align 4
  %66 = sext i32 %65 to i64
  %67 = getelementptr inbounds [50 x [20 x i8]], [50 x [20 x i8]]* %3, i64 0, i64 %66
  %68 = load i32, i32* %9, align 4
  %69 = sext i32 %68 to i64
  %70 = getelementptr inbounds [20 x i8], [20 x i8]* %67, i64 0, i64 %69
  store i8 0, i8* %70, align 1
  %71 = getelementptr inbounds [20 x i8], [20 x i8]* %5, i64 0, i64 0
  %72 = call i32 (i8*, ...) bitcast (i32 (...)* @gets to i32 (i8*, ...)*)(i8* %71)
  %73 = getelementptr inbounds [20 x i8], [20 x i8]* %6, i64 0, i64 0
  %74 = call i32 (i8*, ...) bitcast (i32 (...)* @gets to i32 (i8*, ...)*)(i8* %73)
  store i32 0, i32* %9, align 4
  br label %75

75:                                               ; preds = %96, %64
  %76 = load i32, i32* %9, align 4
  %77 = load i32, i32* %8, align 4
  %78 = add nsw i32 %77, 1
  %79 = icmp slt i32 %76, %78
  br i1 %79, label %80, label %99

80:                                               ; preds = %75
  %81 = getelementptr inbounds [20 x i8], [20 x i8]* %5, i64 0, i64 0
  %82 = load i32, i32* %9, align 4
  %83 = sext i32 %82 to i64
  %84 = getelementptr inbounds [50 x [20 x i8]], [50 x [20 x i8]]* %3, i64 0, i64 %83
  %85 = getelementptr inbounds [20 x i8], [20 x i8]* %84, i64 0, i64 0
  %86 = call i32 @strcmp(i8* %81, i8* %85) #4
  %87 = icmp eq i32 %86, 0
  br i1 %87, label %88, label %95

88:                                               ; preds = %80
  %89 = load i32, i32* %9, align 4
  %90 = sext i32 %89 to i64
  %91 = getelementptr inbounds [50 x [20 x i8]], [50 x [20 x i8]]* %3, i64 0, i64 %90
  %92 = getelementptr inbounds [20 x i8], [20 x i8]* %91, i64 0, i64 0
  %93 = getelementptr inbounds [20 x i8], [20 x i8]* %6, i64 0, i64 0
  %94 = call i8* @strcpy(i8* %92, i8* %93) #5
  br label %95

95:                                               ; preds = %88, %80
  br label %96

96:                                               ; preds = %95
  %97 = load i32, i32* %9, align 4
  %98 = add nsw i32 %97, 1
  store i32 %98, i32* %9, align 4
  br label %75

99:                                               ; preds = %75
  store i32 0, i32* %9, align 4
  br label %100

100:                                              ; preds = %129, %99
  %101 = load i32, i32* %9, align 4
  %102 = load i32, i32* %8, align 4
  %103 = add nsw i32 %102, 1
  %104 = icmp slt i32 %101, %103
  br i1 %104, label %105, label %132

105:                                              ; preds = %100
  %106 = load i32, i32* %9, align 4
  %107 = sext i32 %106 to i64
  %108 = getelementptr inbounds [50 x [20 x i8]], [50 x [20 x i8]]* %3, i64 0, i64 %107
  %109 = getelementptr inbounds [20 x i8], [20 x i8]* %108, i64 0, i64 0
  %110 = call i64 @strlen(i8* %109) #4
  %111 = icmp ne i64 %110, 0
  br i1 %111, label %112, label %128

112:                                              ; preds = %105
  %113 = load i32, i32* %9, align 4
  %114 = icmp eq i32 %113, 0
  br i1 %114, label %115, label %121

115:                                              ; preds = %112
  %116 = load i32, i32* %9, align 4
  %117 = sext i32 %116 to i64
  %118 = getelementptr inbounds [50 x [20 x i8]], [50 x [20 x i8]]* %3, i64 0, i64 %117
  %119 = getelementptr inbounds [20 x i8], [20 x i8]* %118, i64 0, i64 0
  %120 = call i32 (i8*, ...) @printf(i8* getelementptr inbounds ([3 x i8], [3 x i8]* @.str, i64 0, i64 0), i8* %119)
  br label %127

121:                                              ; preds = %112
  %122 = load i32, i32* %9, align 4
  %123 = sext i32 %122 to i64
  %124 = getelementptr inbounds [50 x [20 x i8]], [50 x [20 x i8]]* %3, i64 0, i64 %123
  %125 = getelementptr inbounds [20 x i8], [20 x i8]* %124, i64 0, i64 0
  %126 = call i32 (i8*, ...) @printf(i8* getelementptr inbounds ([4 x i8], [4 x i8]* @.str.1, i64 0, i64 0), i8* %125)
  br label %127

127:                                              ; preds = %121, %115
  br label %128

128:                                              ; preds = %127, %105
  br label %129

129:                                              ; preds = %128
  %130 = load i32, i32* %9, align 4
  %131 = add nsw i32 %130, 1
  store i32 %131, i32* %9, align 4
  br label %100

132:                                              ; preds = %100
  ret i32 0
}

declare dso_local i32 @gets(...) #1

; Function Attrs: nounwind readonly
declare dso_local i32 @strcmp(i8*, i8*) #2

; Function Attrs: nounwind
declare dso_local i8* @strcpy(i8*, i8*) #3

; Function Attrs: nounwind readonly
declare dso_local i64 @strlen(i8*) #2

declare dso_local i32 @printf(i8*, ...) #1


!llvm.module.flags = !{!0}
!llvm.ident = !{!1}

!0 = !{i32 1, !"wchar_size", i32 4}
!1 = !{!"clang version 10.0.0-4ubuntu1 "}
