; ModuleID = 'source-C-CXX/18/2599.c'
source_filename = "source-C-CXX/18/2599.c"
target datalayout = "e-m:e-p270:32:32-p271:32:32-p272:64:64-i64:64-f80:128-n8:16:32:64-S128"
target triple = "x86_64-pc-linux-gnu"

@.str = private unnamed_addr constant [3 x i8] c"%s\00", align 1
@.str.1 = private unnamed_addr constant [4 x i8] c" %s\00", align 1

; Function Attrs: nounwind sspstrong uwtable
define dso_local i32 @main() local_unnamed_addr #0 {
  %1 = alloca [300 x i8], align 16
  %2 = alloca [50 x [20 x i8]], align 16
  %3 = alloca [20 x i8], align 16
  %4 = alloca [20 x i8], align 16
  %5 = getelementptr inbounds [300 x i8], [300 x i8]* %1, i64 0, i64 0
  call void @llvm.lifetime.start.p0i8(i64 300, i8* nonnull %5) #6
  %6 = getelementptr inbounds [50 x [20 x i8]], [50 x [20 x i8]]* %2, i64 0, i64 0, i64 0
  call void @llvm.lifetime.start.p0i8(i64 1000, i8* nonnull %6) #6
  %7 = getelementptr inbounds [20 x i8], [20 x i8]* %3, i64 0, i64 0
  call void @llvm.lifetime.start.p0i8(i64 20, i8* nonnull %7) #6
  %8 = getelementptr inbounds [20 x i8], [20 x i8]* %4, i64 0, i64 0
  call void @llvm.lifetime.start.p0i8(i64 20, i8* nonnull %8) #6
  %9 = call i32 (i8*, ...) bitcast (i32 (...)* @gets to i32 (i8*, ...)*)(i8* nonnull %5) #6
  br label %10

10:                                               ; preds = %26, %0
  %11 = phi i64 [ %29, %26 ], [ 0, %0 ]
  %12 = phi i32 [ %27, %26 ], [ 0, %0 ]
  %13 = phi i32 [ %28, %26 ], [ 0, %0 ]
  %14 = getelementptr inbounds [300 x i8], [300 x i8]* %1, i64 0, i64 %11
  %15 = load i8, i8* %14, align 1, !tbaa !5
  switch i8 %15, label %21 [
    i8 0, label %30
    i8 32, label %16
    i8 44, label %16
  ]

16:                                               ; preds = %10, %10
  %17 = sext i32 %13 to i64
  %18 = sext i32 %12 to i64
  %19 = getelementptr inbounds [50 x [20 x i8]], [50 x [20 x i8]]* %2, i64 0, i64 %17, i64 %18
  store i8 0, i8* %19, align 1, !tbaa !5
  %20 = add nsw i32 %13, 1
  br label %26

21:                                               ; preds = %10
  %22 = sext i32 %13 to i64
  %23 = sext i32 %12 to i64
  %24 = getelementptr inbounds [50 x [20 x i8]], [50 x [20 x i8]]* %2, i64 0, i64 %22, i64 %23
  store i8 %15, i8* %24, align 1, !tbaa !5
  %25 = add nsw i32 %12, 1
  br label %26

26:                                               ; preds = %16, %21
  %27 = phi i32 [ 0, %16 ], [ %25, %21 ]
  %28 = phi i32 [ %20, %16 ], [ %13, %21 ]
  %29 = add nuw i64 %11, 1
  br label %10, !llvm.loop !8

30:                                               ; preds = %10
  %31 = sext i32 %13 to i64
  %32 = sext i32 %12 to i64
  %33 = getelementptr inbounds [50 x [20 x i8]], [50 x [20 x i8]]* %2, i64 0, i64 %31, i64 %32
  store i8 0, i8* %33, align 1, !tbaa !5
  %34 = call i32 (i8*, ...) bitcast (i32 (...)* @gets to i32 (i8*, ...)*)(i8* nonnull %7) #6
  %35 = call i32 (i8*, ...) bitcast (i32 (...)* @gets to i32 (i8*, ...)*)(i8* nonnull %8) #6
  %36 = icmp slt i32 %13, 0
  br i1 %36, label %70, label %37

37:                                               ; preds = %30
  %38 = add nuw i32 %13, 1
  %39 = zext i32 %38 to i64
  br label %50

40:                                               ; preds = %57
  br i1 %36, label %70, label %41

41:                                               ; preds = %40
  %42 = add nuw i32 %13, 1
  %43 = zext i32 %42 to i64
  %44 = call i64 @strlen(i8* noundef nonnull %6) #7
  %45 = icmp eq i64 %44, 0
  br i1 %45, label %48, label %46

46:                                               ; preds = %41
  %47 = call i32 (i8*, ...) @printf(i8* nonnull dereferenceable(1) getelementptr inbounds ([3 x i8], [3 x i8]* @.str, i64 0, i64 0), i8* nonnull %6)
  br label %48

48:                                               ; preds = %46, %41
  %49 = icmp eq i32 %13, 0
  br i1 %49, label %70, label %60

50:                                               ; preds = %37, %57
  %51 = phi i64 [ 0, %37 ], [ %58, %57 ]
  %52 = getelementptr inbounds [50 x [20 x i8]], [50 x [20 x i8]]* %2, i64 0, i64 %51, i64 0
  %53 = call i32 @strcmp(i8* noundef nonnull %7, i8* noundef nonnull %52) #7
  %54 = icmp eq i32 %53, 0
  br i1 %54, label %55, label %57

55:                                               ; preds = %50
  %56 = call i8* @strcpy(i8* noundef nonnull %52, i8* noundef nonnull %8) #6
  br label %57

57:                                               ; preds = %50, %55
  %58 = add nuw nsw i64 %51, 1
  %59 = icmp eq i64 %58, %39
  br i1 %59, label %40, label %50, !llvm.loop !10

60:                                               ; preds = %48, %67
  %61 = phi i64 [ %68, %67 ], [ 1, %48 ]
  %62 = getelementptr inbounds [50 x [20 x i8]], [50 x [20 x i8]]* %2, i64 0, i64 %61, i64 0
  %63 = call i64 @strlen(i8* noundef nonnull %62) #7
  %64 = icmp eq i64 %63, 0
  br i1 %64, label %67, label %65

65:                                               ; preds = %60
  %66 = call i32 (i8*, ...) @printf(i8* nonnull dereferenceable(1) getelementptr inbounds ([4 x i8], [4 x i8]* @.str.1, i64 0, i64 0), i8* nonnull %62)
  br label %67

67:                                               ; preds = %60, %65
  %68 = add nuw nsw i64 %61, 1
  %69 = icmp eq i64 %68, %43
  br i1 %69, label %70, label %60, !llvm.loop !11

70:                                               ; preds = %67, %30, %48, %40
  call void @llvm.lifetime.end.p0i8(i64 20, i8* nonnull %8) #6
  call void @llvm.lifetime.end.p0i8(i64 20, i8* nonnull %7) #6
  call void @llvm.lifetime.end.p0i8(i64 1000, i8* nonnull %6) #6
  call void @llvm.lifetime.end.p0i8(i64 300, i8* nonnull %5) #6
  ret i32 0
}

; Function Attrs: argmemonly mustprogress nofree nosync nounwind willreturn
declare void @llvm.lifetime.start.p0i8(i64 immarg, i8* nocapture) #1

declare i32 @gets(...) local_unnamed_addr #2

; Function Attrs: argmemonly mustprogress nofree nounwind readonly willreturn
declare i32 @strcmp(i8* nocapture, i8* nocapture) local_unnamed_addr #3

; Function Attrs: argmemonly mustprogress nofree nounwind willreturn
declare i8* @strcpy(i8* noalias returned writeonly, i8* noalias nocapture readonly) local_unnamed_addr #4

; Function Attrs: argmemonly mustprogress nofree nounwind readonly willreturn
declare i64 @strlen(i8* nocapture) local_unnamed_addr #3

; Function Attrs: nofree nounwind
declare noundef i32 @printf(i8* nocapture noundef readonly, ...) local_unnamed_addr #5

; Function Attrs: argmemonly mustprogress nofree nosync nounwind willreturn
declare void @llvm.lifetime.end.p0i8(i64 immarg, i8* nocapture) #1


!llvm.module.flags = !{!0, !1, !2, !3}
!llvm.ident = !{!4}

!0 = !{i32 1, !"wchar_size", i32 4}
!1 = !{i32 7, !"PIC Level", i32 2}
!2 = !{i32 7, !"PIE Level", i32 2}
!3 = !{i32 7, !"uwtable", i32 1}
!4 = !{!"clang version 13.0.0"}
!5 = !{!6, !6, i64 0}
!6 = !{!"omnipotent char", !7, i64 0}
!7 = !{!"Simple C/C++ TBAA"}
!8 = distinct !{!8, !9}
!9 = !{!"llvm.loop.mustprogress"}
!10 = distinct !{!10, !9}
!11 = distinct !{!11, !9, !12}
!12 = !{!"llvm.loop.peeled.count", i32 1}
